target datalayout = "e-m:e-p270:32:32-p271:32:32-p272:64:64-i64:64-i128:128-f80:128-n8:16:32:64-S128"
target triple = "x86_64-pc-linux-gnu"

%struct.IndexInfo = type { i32, i32, i32, [32 x i16], ptr, ptr, ptr, ptr, ptr, ptr, ptr, ptr, ptr, ptr, i8, i8, i8, i8, i8, i8, i8, i8, i8, i32, i32, ptr, ptr }
%struct.GISTSTATE = type { ptr, ptr, ptr, ptr, ptr, [32 x %struct.FmgrInfo], [32 x %struct.FmgrInfo], [32 x %struct.FmgrInfo], [32 x %struct.FmgrInfo], [32 x %struct.FmgrInfo], [32 x %struct.FmgrInfo], [32 x %struct.FmgrInfo], [32 x %struct.FmgrInfo], [32 x %struct.FmgrInfo], [32 x i32] }
%struct.FmgrInfo = type { ptr, i32, i16, i8, i8, i8, ptr, ptr, ptr }
%struct.IndexTupleData = type { %struct.ItemPointerData, i16 }
%struct.ItemPointerData = type { %struct.BlockIdData, i16 }
%struct.BlockIdData = type { i16, i16 }

@CurrentMemoryContext = external global ptr, align 8
@.str = private unnamed_addr constant [23 x i8] c"GiST temporary context\00", align 1

; Function Attrs: nounwind uwtable
define dso_local ptr @createTempGistContext() #0 {
  %1 = alloca i32, align 4
  br label %2

2:                                                ; preds = %0
  br label %3

3:                                                ; preds = %2
  store i32 1, ptr %1, align 4
  %4 = load ptr, ptr @CurrentMemoryContext, align 8
  %5 = call ptr @AllocSetContextCreateInternal(ptr noundef %4, ptr noundef @.str, i64 noundef 0, i64 noundef 8192, i64 noundef 8388608)
  ret ptr %5
}

; Function Attrs: inlinehint nounwind uwtable
define internal ptr @MemoryContextSwitchTo(ptr noundef %0) #2 {
  %2 = alloca ptr, align 8
  %3 = alloca ptr, align 8
  store ptr %0, ptr %2, align 8
  call void @llvm.lifetime.start.p0(i64 8, ptr %3) #7
  %4 = load ptr, ptr @CurrentMemoryContext, align 8
  store ptr %4, ptr %3, align 8
  %5 = load ptr, ptr %2, align 8
  store ptr %5, ptr @CurrentMemoryContext, align 8
  %6 = load ptr, ptr %3, align 8
  call void @llvm.lifetime.end.p0(i64 8, ptr %3) #7
  ret ptr %6
}

; Function Attrs: nounwind uwtable
define dso_local zeroext i1 @gistinsert(ptr noundef %0, ptr noundef %1, ptr noundef %2, ptr noundef %3, ptr noundef %4, i32 noundef %5, i1 noundef zeroext %6, ptr noundef %7) #0 {
  %9 = alloca ptr, align 8
  %10 = alloca ptr, align 8
  %11 = alloca ptr, align 8
  %12 = alloca ptr, align 8
  %13 = alloca ptr, align 8
  %14 = alloca i32, align 4
  %15 = alloca i8, align 1
  %16 = alloca ptr, align 8
  %17 = alloca ptr, align 8
  %18 = alloca ptr, align 8
  %19 = alloca ptr, align 8
  store ptr %0, ptr %9, align 8
  store ptr %1, ptr %10, align 8
  store ptr %2, ptr %11, align 8
  store ptr %3, ptr %12, align 8
  store ptr %4, ptr %13, align 8
  store i32 %5, ptr %14, align 4
  %20 = zext i1 %6 to i8
  store i8 %20, ptr %15, align 1
  store ptr %7, ptr %16, align 8
  call void @llvm.lifetime.start.p0(i64 8, ptr %17) #7
  %21 = load ptr, ptr %16, align 8
  %22 = getelementptr inbounds nuw %struct.IndexInfo, ptr %21, i32 0, i32 25
  %23 = load ptr, ptr %22, align 8
  store ptr %23, ptr %17, align 8
  call void @llvm.lifetime.start.p0(i64 8, ptr %18) #7
  call void @llvm.lifetime.start.p0(i64 8, ptr %19) #7
  %24 = load ptr, ptr %17, align 8
  %25 = icmp eq ptr %24, null
  br i1 %25, label %26, label %41

26:                                               ; preds = %8
  %27 = load ptr, ptr %16, align 8
  %28 = getelementptr inbounds nuw %struct.IndexInfo, ptr %27, i32 0, i32 26
  %29 = load ptr, ptr %28, align 8
  %30 = call ptr @MemoryContextSwitchTo(ptr noundef %29)
  store ptr %30, ptr %19, align 8
  %31 = load ptr, ptr %9, align 8
  %32 = call ptr @initGISTstate(ptr noundef %31)
  store ptr %32, ptr %17, align 8
  %33 = call ptr @createTempGistContext()
  %34 = load ptr, ptr %17, align 8
  %35 = getelementptr inbounds nuw %struct.GISTSTATE, ptr %34, i32 0, i32 1
  store ptr %33, ptr %35, align 8
  %36 = load ptr, ptr %17, align 8
  %37 = load ptr, ptr %16, align 8
  %38 = getelementptr inbounds nuw %struct.IndexInfo, ptr %37, i32 0, i32 25
  store ptr %36, ptr %38, align 8
  %39 = load ptr, ptr %19, align 8
  %40 = call ptr @MemoryContextSwitchTo(ptr noundef %39)
  br label %41

41:                                               ; preds = %26, %8
  %42 = load ptr, ptr %17, align 8
  %43 = getelementptr inbounds nuw %struct.GISTSTATE, ptr %42, i32 0, i32 1
  %44 = load ptr, ptr %43, align 8
  %45 = call ptr @MemoryContextSwitchTo(ptr noundef %44)
  store ptr %45, ptr %19, align 8
  %46 = load ptr, ptr %17, align 8
  %47 = load ptr, ptr %9, align 8
  %48 = load ptr, ptr %10, align 8
  %49 = load ptr, ptr %11, align 8
  %50 = call ptr @gistFormTuple(ptr noundef %46, ptr noundef %47, ptr noundef %48, ptr noundef %49, i1 noundef zeroext true)
  store ptr %50, ptr %18, align 8
  %51 = load ptr, ptr %18, align 8
  %52 = getelementptr inbounds nuw %struct.IndexTupleData, ptr %51, i32 0, i32 0
  %53 = load ptr, ptr %12, align 8
  call void @llvm.memcpy.p0.p0.i64(ptr align 2 %52, ptr align 2 %53, i64 6, i1 false)
  %54 = load ptr, ptr %9, align 8
  %55 = load ptr, ptr %18, align 8
  %56 = load ptr, ptr %17, align 8
  %57 = load ptr, ptr %13, align 8
  call void @gistdoinsert(ptr noundef %54, ptr noundef %55, i64 noundef 0, ptr noundef %56, ptr noundef %57, i1 noundef zeroext false)
  %58 = load ptr, ptr %19, align 8
  %59 = call ptr @MemoryContextSwitchTo(ptr noundef %58)
  %60 = load ptr, ptr %17, align 8
  %61 = getelementptr inbounds nuw %struct.GISTSTATE, ptr %60, i32 0, i32 1
  %62 = load ptr, ptr %61, align 8
  call void @MemoryContextReset(ptr noundef %62)
  call void @llvm.lifetime.end.p0(i64 8, ptr %19) #7
  call void @llvm.lifetime.end.p0(i64 8, ptr %18) #7
  call void @llvm.lifetime.end.p0(i64 8, ptr %17) #7
  ret i1 false
}