; Function Attrs: nounwind uwtable
define dso_local noundef zeroext i1 @gistinsert(ptr noundef %0, ptr noundef %1, ptr noundef %2, ptr noundef readonly captures(none) %3, ptr noundef %4, i32 %5, i1 zeroext %6, ptr noundef captures(none) %7) #0 {
  %9 = getelementptr inbounds nuw i8, ptr %7, i64 184
  %10 = load ptr, ptr %9, align 8
  %11 = icmp eq ptr %10, null
  %.pre = load ptr, ptr @CurrentMemoryContext, align 8
  br i1 %11, label %12, label %19

12:                                               ; preds = %8
  %13 = getelementptr inbounds nuw i8, ptr %7, i64 192
  %14 = load ptr, ptr %13, align 8
  store ptr %14, ptr @CurrentMemoryContext, align 8
  %15 = tail call ptr @initGISTstate(ptr noundef %0)
  %16 = load ptr, ptr @CurrentMemoryContext, align 8
  %17 = tail call ptr @AllocSetContextCreateInternal(ptr noundef %16, ptr noundef nonnull @.str, i64 noundef 0, i64 noundef 8192, i64 noundef 8388608) #8
  %18 = getelementptr inbounds nuw i8, ptr %15, i64 8
  store ptr %17, ptr %18, align 8
  store ptr %15, ptr %9, align 8
  br label %19

19:                                               ; preds = %12, %8
  %.0 = phi ptr [ %15, %12 ], [ %10, %8 ]
  %20 = getelementptr inbounds nuw i8, ptr %.0, i64 8
  %21 = load ptr, ptr %20, align 8
  store ptr %21, ptr @CurrentMemoryContext, align 8
  %22 = tail call ptr @gistFormTuple(ptr noundef nonnull %.0, ptr noundef %0, ptr noundef %1, ptr noundef %2, i1 noundef zeroext true) #8
  tail call void @llvm.memcpy.p0.p0.i64(ptr noundef nonnull align 2 dereferenceable(6) %22, ptr noundef nonnull align 2 dereferenceable(6) %3, i64 6, i1 false)
  tail call void @gistdoinsert(ptr noundef %0, ptr noundef nonnull %22, i64 noundef 0, ptr noundef nonnull %.0, ptr noundef %4, i1 noundef zeroext false)
  store ptr %.pre, ptr @CurrentMemoryContext, align 8
  %23 = load ptr, ptr %20, align 8
  tail call void @MemoryContextReset(ptr noundef %23) #8
  ret i1 false
}